target datalayout = "e-m:e-p270:32:32-p271:32:32-p272:64:64-i64:64-i128:128-f80:128-n8:16:32:64-S128"
target triple = "x86_64-pc-linux-gnu"

@.str.21 = private unnamed_addr constant [9 x i8] c"%u/%u/%u\00", align 1

; Function Attrs: nounwind null_pointer_is_valid sspstrong uwtable
define internal zeroext i16 @read_ga(ptr noundef %0) #6 {
  %2 = alloca ptr, align 8
  %3 = alloca [3 x i32], align 4
  %4 = alloca i32, align 4
  store ptr %0, ptr %2, align 8
  call void @llvm.lifetime.start.p0(i64 12, ptr %3) #10
  call void @llvm.lifetime.start.p0(i64 4, ptr %4) #10
  %5 = load ptr, ptr %2, align 8
  %6 = getelementptr inbounds [3 x i32], ptr %3, i64 0, i64 0
  %7 = getelementptr inbounds [3 x i32], ptr %3, i64 0, i64 0
  %8 = getelementptr i32, ptr %7, i64 1
  %9 = getelementptr inbounds [3 x i32], ptr %3, i64 0, i64 0
  %10 = getelementptr i32, ptr %9, i64 2
  %11 = call i32 (ptr, ptr, ...) @__isoc99_sscanf(ptr noundef %5, ptr noundef @.str.21, ptr noundef %6, ptr noundef %8, ptr noundef %10) #10
  store i32 %11, ptr %4, align 4
  %12 = load i32, ptr %4, align 4
  %13 = icmp eq i32 %12, 1
  br i1 %13, label %14, label %19

14:                                               ; preds = %1
  %15 = getelementptr [3 x i32], ptr %3, i64 0, i64 0
  %16 = load i32, ptr %15, align 4
  %17 = trunc i32 %16 to i16
  %18 = zext i16 %17 to i32
  br label %52

19:                                               ; preds = %1
  %20 = load i32, ptr %4, align 4
  %21 = icmp eq i32 %20, 2
  br i1 %21, label %22, label %31

22:                                               ; preds = %19
  %23 = getelementptr [3 x i32], ptr %3, i64 0, i64 0
  %24 = load i32, ptr %23, align 4
  %25 = shl i32 %24, 11
  %26 = getelementptr [3 x i32], ptr %3, i64 0, i64 1
  %27 = load i32, ptr %26, align 4
  %28 = or i32 %25, %27
  %29 = trunc i32 %28 to i16
  %30 = zext i16 %29 to i32
  br label %50

31:                                               ; preds = %19
  %32 = load i32, ptr %4, align 4
  %33 = icmp eq i32 %32, 3
  br i1 %33, label %34, label %47

34:                                               ; preds = %31
  %35 = getelementptr [3 x i32], ptr %3, i64 0, i64 0
  %36 = load i32, ptr %35, align 4
  %37 = shl i32 %36, 11
  %38 = getelementptr [3 x i32], ptr %3, i64 0, i64 1
  %39 = load i32, ptr %38, align 4
  %40 = shl i32 %39, 8
  %41 = or i32 %37, %40
  %42 = getelementptr [3 x i32], ptr %3, i64 0, i64 2
  %43 = load i32, ptr %42, align 4
  %44 = or i32 %41, %43
  %45 = trunc i32 %44 to i16
  %46 = zext i16 %45 to i32
  br label %48

47:                                               ; preds = %31
  br label %48

48:                                               ; preds = %47, %34
  %49 = phi i32 [ %46, %34 ], [ 0, %47 ]
  br label %50

50:                                               ; preds = %48, %22
  %51 = phi i32 [ %30, %22 ], [ %49, %48 ]
  br label %52

52:                                               ; preds = %50, %14
  %53 = phi i32 [ %18, %14 ], [ %51, %50 ]
  %54 = trunc i32 %53 to i16
  call void @llvm.lifetime.end.p0(i64 4, ptr %4) #10
  call void @llvm.lifetime.end.p0(i64 12, ptr %3) #10
  ret i16 %54
}