; Function Attrs: nofree nounwind null_pointer_is_valid sspstrong uwtable
define internal fastcc zeroext i16 @read_ga(ptr noundef readonly captures(none) %0) unnamed_addr #6 {
  %2 = alloca [3 x i32], align 4
  call void @llvm.lifetime.start.p0(i64 12, ptr nonnull %2) #14
  %3 = getelementptr inbounds nuw i8, ptr %2, i64 4
  %4 = getelementptr inbounds nuw i8, ptr %2, i64 8
  %5 = call i32 (ptr, ptr, ...) @__isoc99_sscanf(ptr noundef %0, ptr noundef nonnull @.str.21, ptr noundef nonnull %2, ptr noundef nonnull %3, ptr noundef nonnull %4) #14
  switch i32 %5, label %21 [
    i32 1, label %6
    i32 2, label %8
    i32 3, label %13
  ]

6:                                                ; preds = %1
  %7 = load i32, ptr %2, align 4
  br label %21

8:                                                ; preds = %1
  %9 = load i32, ptr %2, align 4
  %10 = shl i32 %9, 11
  %11 = load i32, ptr %3, align 4
  %12 = or i32 %10, %11
  br label %21

13:                                               ; preds = %1
  %14 = load i32, ptr %2, align 4
  %15 = shl i32 %14, 11
  %16 = load i32, ptr %3, align 4
  %17 = shl i32 %16, 8
  %18 = or i32 %17, %15
  %19 = load i32, ptr %4, align 4
  %20 = or i32 %18, %19
  br label %21

21:                                               ; preds = %1, %8, %13, %6
  %22 = phi i32 [ %7, %6 ], [ %12, %8 ], [ %20, %13 ], [ 0, %1 ]
  %23 = trunc i32 %22 to i16
  call void @llvm.lifetime.end.p0(i64 12, ptr nonnull %2) #14
  ret i16 %23
}